target datalayout = "e-m:e-p270:32:32-p271:32:32-p272:64:64-i64:64-i128:128-f80:128-n8:16:32:64-S128"
target triple = "x86_64-pc-linux-gnu"

%struct.TSQueryData = type { i32, i32, [0 x i8] }
%struct.FunctionCallInfoBaseData = type { ptr, ptr, ptr, i32, i8, i16, [0 x %struct.NullableDatum] }
%struct.NullableDatum = type { i64, i8 }
%struct.INFIX = type { ptr, ptr, ptr, ptr, i32 }

; Function Attrs: inlinehint nounwind uwtable
define internal i64 @CStringGetDatum(ptr noundef %0) #5 {
  %2 = alloca ptr, align 8
  store ptr %0, ptr %2, align 8
  %3 = load ptr, ptr %2, align 8
  %4 = call i64 @PointerGetDatum(ptr noundef %3)
  ret i64 %4
}

; Function Attrs: inlinehint nounwind uwtable
define internal ptr @DatumGetPointer(i64 noundef %0) #5 {
  %2 = alloca i64, align 8
  store i64 %0, ptr %2, align 8
  %3 = load i64, ptr %2, align 8
  %4 = inttoptr i64 %3 to ptr
  ret ptr %4
}

; Function Attrs: inlinehint nounwind uwtable
define internal i64 @PointerGetDatum(ptr noundef %0) #5 {
  %2 = alloca ptr, align 8
  store ptr %0, ptr %2, align 8
  %3 = load ptr, ptr %2, align 8
  %4 = ptrtoint ptr %3 to i64
  ret i64 %4
}

; Function Attrs: inlinehint nounwind uwtable
define internal ptr @DatumGetTSQuery(i64 noundef %0) #5 {
  %2 = alloca i64, align 8
  store i64 %0, ptr %2, align 8
  %3 = load i64, ptr %2, align 8
  %4 = call ptr @DatumGetPointer(i64 noundef %3)
  ret ptr %4
}

; Function Attrs: nounwind uwtable
define dso_local i64 @tsqueryout(ptr noundef %0) #0 {
  %2 = alloca i64, align 8
  %3 = alloca ptr, align 8
  %4 = alloca ptr, align 8
  %5 = alloca %struct.INFIX, align 8
  %6 = alloca ptr, align 8
  %7 = alloca i32, align 4
  store ptr %0, ptr %3, align 8
  call void @llvm.lifetime.start.p0(i64 8, ptr %4) #11
  %8 = load ptr, ptr %3, align 8
  %9 = getelementptr inbounds nuw %struct.FunctionCallInfoBaseData, ptr %8, i32 0, i32 6
  %10 = getelementptr inbounds [0 x %struct.NullableDatum], ptr %9, i64 0, i64 0
  %11 = getelementptr inbounds nuw %struct.NullableDatum, ptr %10, i32 0, i32 0
  %12 = load i64, ptr %11, align 8
  %13 = call ptr @DatumGetTSQuery(i64 noundef %12)
  store ptr %13, ptr %4, align 8
  call void @llvm.lifetime.start.p0(i64 40, ptr %5) #11
  %14 = load ptr, ptr %4, align 8
  %15 = getelementptr inbounds nuw %struct.TSQueryData, ptr %14, i32 0, i32 1
  %16 = load i32, ptr %15, align 4
  %17 = icmp eq i32 %16, 0
  br i1 %17, label %18, label %23

18:                                               ; preds = %1
  call void @llvm.lifetime.start.p0(i64 8, ptr %6) #11
  %19 = call ptr @palloc(i64 noundef 1)
  store ptr %19, ptr %6, align 8
  %20 = load ptr, ptr %6, align 8
  store i8 0, ptr %20, align 1
  %21 = load ptr, ptr %6, align 8
  %22 = call i64 @PointerGetDatum(ptr noundef %21)
  store i64 %22, ptr %2, align 8
  store i32 1, ptr %7, align 4
  call void @llvm.lifetime.end.p0(i64 8, ptr %6) #11
  br label %63

23:                                               ; preds = %1
  %24 = load ptr, ptr %4, align 8
  %25 = getelementptr inbounds nuw i8, ptr %24, i64 8
  %26 = getelementptr inbounds nuw %struct.INFIX, ptr %5, i32 0, i32 0
  store ptr %25, ptr %26, align 8
  %27 = getelementptr inbounds nuw %struct.INFIX, ptr %5, i32 0, i32 4
  store i32 32, ptr %27, align 8
  %28 = getelementptr inbounds nuw %struct.INFIX, ptr %5, i32 0, i32 4
  %29 = load i32, ptr %28, align 8
  %30 = sext i32 %29 to i64
  %31 = mul i64 1, %30
  %32 = call ptr @palloc(i64 noundef %31)
  %33 = getelementptr inbounds nuw %struct.INFIX, ptr %5, i32 0, i32 1
  store ptr %32, ptr %33, align 8
  %34 = getelementptr inbounds nuw %struct.INFIX, ptr %5, i32 0, i32 2
  store ptr %32, ptr %34, align 8
  %35 = getelementptr inbounds nuw %struct.INFIX, ptr %5, i32 0, i32 2
  %36 = load ptr, ptr %35, align 8
  store i8 0, ptr %36, align 1
  %37 = load ptr, ptr %4, align 8
  %38 = getelementptr inbounds nuw i8, ptr %37, i64 8
  %39 = load ptr, ptr %4, align 8
  %40 = getelementptr inbounds nuw %struct.TSQueryData, ptr %39, i32 0, i32 1
  %41 = load i32, ptr %40, align 4
  %42 = sext i32 %41 to i64
  %43 = mul i64 %42, 12
  %44 = getelementptr inbounds nuw i8, ptr %38, i64 %43
  %45 = getelementptr inbounds nuw %struct.INFIX, ptr %5, i32 0, i32 3
  store ptr %44, ptr %45, align 8
  call void @infix(ptr noundef %5, i32 noundef -1, i1 noundef zeroext false)
  br label %46

46:                                               ; preds = %23
  %47 = load ptr, ptr %4, align 8
  %48 = load ptr, ptr %3, align 8
  %49 = getelementptr inbounds nuw %struct.FunctionCallInfoBaseData, ptr %48, i32 0, i32 6
  %50 = getelementptr inbounds [0 x %struct.NullableDatum], ptr %49, i64 0, i64 0
  %51 = getelementptr inbounds nuw %struct.NullableDatum, ptr %50, i32 0, i32 0
  %52 = load i64, ptr %51, align 8
  %53 = call ptr @DatumGetPointer(i64 noundef %52)
  %54 = icmp ne ptr %47, %53
  br i1 %54, label %55, label %57

55:                                               ; preds = %46
  %56 = load ptr, ptr %4, align 8
  call void @pfree(ptr noundef %56)
  br label %57

57:                                               ; preds = %55, %46
  br label %58

58:                                               ; preds = %57
  br label %59

59:                                               ; preds = %58
  %60 = getelementptr inbounds nuw %struct.INFIX, ptr %5, i32 0, i32 1
  %61 = load ptr, ptr %60, align 8
  %62 = call i64 @CStringGetDatum(ptr noundef %61)
  store i64 %62, ptr %2, align 8
  store i32 1, ptr %7, align 4
  br label %63

63:                                               ; preds = %59, %18
  call void @llvm.lifetime.end.p0(i64 40, ptr %5) #11
  call void @llvm.lifetime.end.p0(i64 8, ptr %4) #11
  %64 = load i64, ptr %2, align 8
  ret i64 %64
}