; Function Attrs: nounwind uwtable
define dso_local i64 @tsqueryout(ptr noundef readonly captures(none) %0) local_unnamed_addr #0 {
  %2 = alloca %struct.INFIX, align 8
  %3 = getelementptr inbounds nuw i8, ptr %0, i64 32
  %4 = load i64, ptr %3, align 8
  %5 = inttoptr i64 %4 to ptr
  call void @llvm.lifetime.start.p0(i64 40, ptr nonnull %2) #12
  %6 = getelementptr inbounds nuw i8, ptr %5, i64 4
  %7 = load i32, ptr %6, align 4
  %8 = icmp eq i32 %7, 0
  br i1 %8, label %9, label %11

9:                                                ; preds = %1
  %10 = tail call ptr @palloc(i64 noundef 1) #12
  store i8 0, ptr %10, align 1
  br label %26

11:                                               ; preds = %1
  %12 = getelementptr inbounds nuw i8, ptr %5, i64 8
  store ptr %12, ptr %2, align 8
  %13 = getelementptr inbounds nuw i8, ptr %2, i64 32
  store i32 32, ptr %13, align 8
  %14 = tail call ptr @palloc(i64 noundef 32) #12
  %15 = getelementptr inbounds nuw i8, ptr %2, i64 8
  store ptr %14, ptr %15, align 8
  %16 = getelementptr inbounds nuw i8, ptr %2, i64 16
  store ptr %14, ptr %16, align 8
  store i8 0, ptr %14, align 1
  %17 = load i32, ptr %6, align 4
  %18 = sext i32 %17 to i64
  %19 = mul nsw i64 %18, 12
  %20 = getelementptr inbounds nuw i8, ptr %12, i64 %19
  %21 = getelementptr inbounds nuw i8, ptr %2, i64 24
  store ptr %20, ptr %21, align 8
  call fastcc void @infix(ptr noundef %2, i32 noundef -1, i1 noundef zeroext false)
  %22 = load i64, ptr %3, align 8
  %.not = icmp eq i64 %4, %22
  br i1 %.not, label %24, label %23

23:                                               ; preds = %11
  call void @pfree(ptr noundef nonnull %5) #12
  br label %24

24:                                               ; preds = %23, %11
  %25 = load ptr, ptr %15, align 8
  br label %26

26:                                               ; preds = %24, %9
  %.0.in = phi ptr [ %10, %9 ], [ %25, %24 ]
  %.0 = ptrtoint ptr %.0.in to i64
  call void @llvm.lifetime.end.p0(i64 40, ptr nonnull %2) #12
  ret i64 %.0
}